; Function Attrs: inlinehint mustprogress nofree norecurse nosync nounwind willreturn memory(read, argmem: readwrite, inaccessiblemem: none) uwtable
define internal fastcc range(i32 0, 3) i32 @decode210(ptr noundef captures(none) %0) unnamed_addr #6 {
  %2 = getelementptr inbounds nuw i8, ptr %0, i64 16
  %3 = load i32, ptr %2, align 8, !tbaa !12
  %4 = load ptr, ptr %0, align 8, !tbaa !15
  %5 = lshr i32 %3, 3
  %6 = zext nneg i32 %5 to i64
  %7 = getelementptr inbounds nuw i8, ptr %4, i64 %6
  %8 = load i8, ptr %7, align 1, !tbaa !11
  %9 = getelementptr inbounds nuw i8, ptr %0, i64 24
  %10 = load i32, ptr %9, align 8, !tbaa !14
  %11 = icmp slt i32 %3, %10
  %12 = zext i1 %11 to i32
  %spec.select.i = add i32 %3, %12
  %13 = zext i8 %8 to i32
  %14 = and i32 %3, 7
  store i32 %spec.select.i, ptr %2, align 8, !tbaa !12
  %15 = lshr exact i32 128, %14
  %16 = and i32 %15, %13
  %.not = icmp eq i32 %16, 0
  br i1 %.not, label %17, label %30

17:                                               ; preds = %1
  %18 = lshr i32 %spec.select.i, 3
  %19 = zext nneg i32 %18 to i64
  %20 = getelementptr inbounds nuw i8, ptr %4, i64 %19
  %21 = load i8, ptr %20, align 1, !tbaa !11
  %22 = icmp slt i32 %spec.select.i, %10
  %23 = zext i1 %22 to i32
  %spec.select.i2 = add i32 %spec.select.i, %23
  %24 = zext i8 %21 to i32
  %25 = and i32 %spec.select.i, 7
  %26 = shl nuw nsw i32 %24, %25
  store i32 %spec.select.i2, ptr %2, align 8, !tbaa !12
  %27 = shl i32 %26, 24
  %28 = ashr i32 %27, 31
  %29 = add nsw i32 %28, 2
  br label %30

30:                                               ; preds = %1, %17
  %.0 = phi i32 [ %29, %17 ], [ 0, %1 ]
  ret i32 %.0
}